target datalayout = "e-m:e-p270:32:32-p271:32:32-p272:64:64-i64:64-i128:128-f80:128-n8:16:32:64-S128"
target triple = "x86_64-pc-linux-gnu"

%struct.hooks_s = type { ptr, ptr, ptr, ptr }

; Function Attrs: alwaysinline nounwind uwtable
define internal ptr @tsd_tsdn(ptr noundef %0) #2 {
  %2 = alloca ptr, align 8
  store ptr %0, ptr %2, align 8, !tbaa !3
  %3 = load ptr, ptr %2, align 8, !tbaa !3
  ret ptr %3
}

; Function Attrs: nounwind uwtable
define internal i32 @experimental_hooks_install_ctl(ptr noundef %0, ptr noundef %1, i64 noundef %2, ptr noundef %3, ptr noundef %4, ptr noundef %5, i64 noundef %6) #0 {
  %8 = alloca i32, align 4
  %9 = alloca ptr, align 8
  %10 = alloca ptr, align 8
  %11 = alloca i64, align 8
  %12 = alloca ptr, align 8
  %13 = alloca ptr, align 8
  %14 = alloca ptr, align 8
  %15 = alloca i64, align 8
  %16 = alloca i32, align 4
  %17 = alloca %struct.hooks_s, align 8
  %18 = alloca ptr, align 8
  %19 = alloca i64, align 8
  %20 = alloca i32, align 4
  store ptr %0, ptr %9, align 8, !tbaa !3
  store ptr %1, ptr %10, align 8, !tbaa !11
  store i64 %2, ptr %11, align 8, !tbaa !13
  store ptr %3, ptr %12, align 8, !tbaa !10
  store ptr %4, ptr %13, align 8, !tbaa !11
  store ptr %5, ptr %14, align 8, !tbaa !10
  store i64 %6, ptr %15, align 8, !tbaa !13
  call void @llvm.lifetime.start.p0(i64 4, ptr %16) #13
  %21 = load ptr, ptr %12, align 8, !tbaa !10
  %22 = icmp eq ptr %21, null
  br i1 %22, label %29, label %23

23:                                               ; preds = %7
  %24 = load ptr, ptr %13, align 8, !tbaa !11
  %25 = icmp eq ptr %24, null
  br i1 %25, label %29, label %26

26:                                               ; preds = %23
  %27 = load ptr, ptr %14, align 8, !tbaa !10
  %28 = icmp eq ptr %27, null
  br i1 %28, label %29, label %30

29:                                               ; preds = %26, %23, %7
  store i32 22, ptr %16, align 4, !tbaa !19
  br label %81

30:                                               ; preds = %26
  br label %31

31:                                               ; preds = %30
  %32 = load ptr, ptr %14, align 8, !tbaa !10
  %33 = icmp ne ptr %32, null
  br i1 %33, label %34, label %40

34:                                               ; preds = %31
  %35 = load i64, ptr %15, align 8, !tbaa !13
  %36 = icmp ne i64 %35, 32
  br i1 %36, label %37, label %38

37:                                               ; preds = %34
  store i32 22, ptr %16, align 4, !tbaa !19
  br label %81

38:                                               ; preds = %34
  %39 = load ptr, ptr %14, align 8, !tbaa !10
  call void @llvm.memcpy.p0.p0.i64(ptr align 8 %17, ptr align 8 %39, i64 32, i1 false), !tbaa.struct !324
  br label %40

40:                                               ; preds = %38, %31
  br label %41

41:                                               ; preds = %40
  br label %42

42:                                               ; preds = %41
  %43 = load ptr, ptr %9, align 8, !tbaa !3
  %44 = call ptr @tsd_tsdn(ptr noundef %43)
  %45 = call ptr @duckdb_je_hook_install(ptr noundef %44, ptr noundef %17)
  store ptr %45, ptr %18, align 8, !tbaa !10
  %46 = load ptr, ptr %18, align 8, !tbaa !10
  %47 = icmp eq ptr %46, null
  br i1 %47, label %48, label %49

48:                                               ; preds = %42
  store i32 11, ptr %16, align 4, !tbaa !19
  br label %81

49:                                               ; preds = %42
  br label %50

50:                                               ; preds = %49
  %51 = load ptr, ptr %12, align 8, !tbaa !10
  %52 = icmp ne ptr %51, null
  br i1 %52, label %53, label %78

53:                                               ; preds = %50
  %54 = load ptr, ptr %13, align 8, !tbaa !11
  %55 = icmp ne ptr %54, null
  br i1 %55, label %56, label %78

56:                                               ; preds = %53
  %57 = load ptr, ptr %13, align 8, !tbaa !11
  %58 = load i64, ptr %57, align 8, !tbaa !13
  %59 = icmp ne i64 %58, 8
  br i1 %59, label %60, label %75

60:                                               ; preds = %56
  call void @llvm.lifetime.start.p0(i64 8, ptr %19) #13
  %61 = load ptr, ptr %13, align 8, !tbaa !11
  %62 = load i64, ptr %61, align 8, !tbaa !13
  %63 = icmp ule i64 8, %62
  br i1 %63, label %64, label %65

64:                                               ; preds = %60
  br label %68

65:                                               ; preds = %60
  %66 = load ptr, ptr %13, align 8, !tbaa !11
  %67 = load i64, ptr %66, align 8, !tbaa !13
  br label %68

68:                                               ; preds = %65, %64
  %69 = phi i64 [ 8, %64 ], [ %67, %65 ]
  store i64 %69, ptr %19, align 8, !tbaa !13
  %70 = load ptr, ptr %12, align 8, !tbaa !10
  %71 = load i64, ptr %19, align 8, !tbaa !13
  call void @llvm.memcpy.p0.p0.i64(ptr align 1 %70, ptr align 1 %18, i64 %71, i1 false)
  %72 = load i64, ptr %19, align 8, !tbaa !13
  %73 = load ptr, ptr %13, align 8, !tbaa !11
  store i64 %72, ptr %73, align 8, !tbaa !13
  store i32 22, ptr %16, align 4, !tbaa !19
  store i32 2, ptr %20, align 4
  call void @llvm.lifetime.end.p0(i64 8, ptr %19) #13
  %74 = load i32, ptr %20, align 4
  switch i32 %74, label %83 [
    i32 2, label %81
  ]

75:                                               ; preds = %56
  %76 = load ptr, ptr %18, align 8, !tbaa !10
  %77 = load ptr, ptr %12, align 8, !tbaa !10
  store ptr %76, ptr %77, align 8, !tbaa !10
  br label %78

78:                                               ; preds = %75, %53, %50
  br label %79

79:                                               ; preds = %78
  br label %80

80:                                               ; preds = %79
  store i32 0, ptr %16, align 4, !tbaa !19
  br label %81

81:                                               ; preds = %80, %68, %48, %37, %29
  %82 = load i32, ptr %16, align 4, !tbaa !19
  store i32 %82, ptr %8, align 4
  store i32 1, ptr %20, align 4
  br label %83

83:                                               ; preds = %81, %68
  call void @llvm.lifetime.end.p0(i64 4, ptr %16) #13
  %84 = load i32, ptr %8, align 4
  ret i32 %84
}